(dp0
S'show_imports'
p1
I0
sS'prj_name'
p2
S'Script-SEB'
p3
sS'docformat'
p4
S'restructuredtext'
p5
sS'inheritance'
p6
S'grouped'
p7
sS'help'
p8
NsS'modules'
p9
(S'/media/sebastien/Bayer/ScriptsSEB/scripts/modules/MODULES_SEB.py'
p10
tp11
sS'private'
p12
I1
sS'prj_url'
p13
S'http://194.254.138.95/DOC/index.html'
p14
sS'introspect_or_parse'
p15
S'both'
p16
sS'frames'
p17
I1
sS'css'
p18
S'white'
p19
sS'target'
p20
S'/media/sebastien/Bayer/ScriptsSEB/scripts/modules/DOC/'
p21
s.
