(dp0
S'show_imports'
p1
I0
sS'prj_name'
p2
S'Scripts_Seb'
p3
sS'docformat'
p4
S'restructuredtext'
p5
sS'inheritance'
p6
S'grouped'
p7
sS'help'
p8
NsS'modules'
p9
(S'/media/sebastien/Bayer/ScriptsSEB/modulesPython/MODULES_SEB.py'
p10
S'/media/sebastien/Bayer/ScriptsSEB/scripts/addFastaInfos.py'
p11
S'/media/sebastien/Bayer/ScriptsSEB/scripts/addSoucheDarren.py'
p12
S'/media/sebastien/Bayer/ScriptsSEB/scripts/build_consensus.py'
p13
S'/media/sebastien/Bayer/ScriptsSEB/scripts/build_consensusV2.py'
p14
S'/media/sebastien/Bayer/ScriptsSEB/scripts/buildXLSfromVCF.py'
p15
S'/media/sebastien/Bayer/ScriptsSEB/scripts/catAllFile_dir.py'
p16
S'/media/sebastien/Bayer/ScriptsSEB/scripts/convertCSV.py'
p17
S'/media/sebastien/Bayer/ScriptsSEB/scripts/extractFromgff.py'
p18
S'/media/sebastien/Bayer/ScriptsSEB/scripts/extractFromVCF.py'
p19
S'/media/sebastien/Bayer/ScriptsSEB/scripts/extractSeuilUFR.py'
p20
S'/media/sebastien/Bayer/ScriptsSEB/scripts/getdistrgenotype.py'
p21
S'/media/sebastien/Bayer/ScriptsSEB/scripts/getdistrgenotypeTAB.py'
p22
S'/media/sebastien/Bayer/ScriptsSEB/scripts/getHistsGATK.py'
p23
S'/media/sebastien/Bayer/ScriptsSEB/scripts/grepconsensus.py'
p24
S'/media/sebastien/Bayer/ScriptsSEB/scripts/make_simulatorR_dir.py'
p25
S'/media/sebastien/Bayer/ScriptsSEB/scripts/makeClumpakMatrice.py'
p26
S'/media/sebastien/Bayer/ScriptsSEB/scripts/mggPosition.py'
p27
S'/media/sebastien/Bayer/ScriptsSEB/scripts/parseBlast.py'
p28
S'/media/sebastien/Bayer/ScriptsSEB/scripts/parseVCF.py'
p29
S'/media/sebastien/Bayer/ScriptsSEB/scripts/parseVCF2.py'
p30
S'/media/sebastien/Bayer/ScriptsSEB/scripts/parseVCFAnnoter.py'
p31
S'/media/sebastien/Bayer/ScriptsSEB/scripts/pipelineFilterSNP.py'
p32
S'/media/sebastien/Bayer/ScriptsSEB/scripts/pipelineSNP.py'
p33
S'/media/sebastien/Bayer/ScriptsSEB/scripts/removeDoubleLine.py'
p34
S'/media/sebastien/Bayer/ScriptsSEB/scripts/replaceRtabFile.py'
p35
S'/media/sebastien/Bayer/ScriptsSEB/scripts/rmSoucheTab.py'
p36
S'/media/sebastien/Bayer/ScriptsSEB/scripts/sortchr2kb.py'
p37
S'/media/sebastien/Bayer/ScriptsSEB/scripts/sortMGGandBR29.py'
p38
tp39
sS'private'
p40
I1
sS'prj_url'
p41
NsS'introspect_or_parse'
p42
S'both'
p43
sS'frames'
p44
I1
sS'css'
p45
S'white'
p46
sS'target'
p47
S'/media/sebastien/Bayer/ScriptsSEB/modulesPython/DOCALL'
p48
s.